; dlltool --base-file C:\Users\Johan\AppData\Local\Temp\cca01796.base --output-exp JohanEngine.exp --dllname JohanEngine.dll --output-def ../libJohanEngine.def --no-export-all-symbols --add-stdcall-alias --exclude-symbol=DllMainCRTStartup --def C:\Users\Johan\AppData\Local\Temp\cca01796.def --output-lib ../libJohanEngine.a
EXPORTS
	FX @ 1 DATA
;	FileExists(char const*)
	_Z10FileExistsPKc @ 2
;	GetCPUName(char*, int)
	_Z10GetCPUNamePci @ 3
;	GetGPUName(char*, int)
	_Z10GetGPUNamePci @ 4
;	InitEngine()
	_Z10InitEnginev @ 5
;	GetFullPath(char const*, char const*, char*)
	_Z11GetFullPathPKcS0_Pc @ 6
;	RandomRange(float, float)
	_Z11RandomRangeff @ 7
;	SafeRelease(IUnknown*)
	_Z11SafeReleaseP8IUnknown @ 8
;	StripQuotes(char const*)
	_Z11StripQuotesPKc @ 9
;	DeleteEngine()
	_Z12DeleteEnginev @ 10
;	GetCSIDLPath(int, char*)
	_Z12GetCSIDLPathiPc @ 11
;	GramSchmidt2(float3, float3)
	_Z12GramSchmidt26float3S_ @ 12
;	GramSchmidt3(float3, float3, float3)
	_Z12GramSchmidt36float3S_S_ @ 13
;	ChangeFileExt(char const*, char const*, char*)
	_Z13ChangeFileExtPKcS0_Pc @ 14
;	GetFontSizePt(int, HDC__*)
	_Z13GetFontSizePtiP5HDC__ @ 15
;	IntToFourChar(int, char*)
	_Z13IntToFourChariPc @ 16
;	EnumerateFiles(char const*, char const*, std::vector<char*, std::allocator<char*> >*)
	_Z14EnumerateFilesPKcS0_PSt6vectorIPcSaIS2_EE @ 17
;	ExtractFileExt(char const*, char*)
	_Z14ExtractFileExtPKcPc @ 18
;	ExtractFileName(char const*, char*)
	_Z15ExtractFileNamePKcPc @ 19
;	ExtractFilePath(char const*, char*)
	_Z15ExtractFilePathPKcPc @ 20
;	ComputeSSAOKernel(int)
	_Z17ComputeSSAOKerneli @ 21
;	ComputeGaussKernel(int, float)
	_Z18ComputeGaussKernelif @ 22
;	Trim(char*)
	_Z4TrimPc @ 23
;	Faculty(unsigned int)
	_Z7Facultyj @ 24
;	fequals(float, float)
	_Z7fequalsff @ 25
;	Binomial(unsigned int, unsigned int)
	_Z8Binomialjj @ 26
;	DegToRad(float)
	_Z8DegToRadf @ 27
;	RadToDeg(float)
	_Z8RadToDegf @ 28
;	TrimLeft(char*)
	_Z8TrimLeftPc @ 29
;	CountChar(char const*, char)
	_Z9CountCharPKcc @ 30
;	TrimRight(char*)
	_Z9TrimRightPc @ 31
;	Animations::OnUpdateTime(float)
	_ZN10Animations12OnUpdateTimeEf @ 32
;	Animations::StaticOnUpdateTime(void*, double)
	_ZN10Animations18StaticOnUpdateTimeEPvd @ 33
;	Animations::Add(Animation*)
	_ZN10Animations3AddEP9Animation @ 34
;	Animations::Clear()
	_ZN10Animations5ClearEv @ 35
;	Animations::Print()
	_ZN10Animations5PrintEv @ 36
;	Animations::Delete(Animation*)
	_ZN10Animations6DeleteEP9Animation @ 37
;	Animations::SaveToCSV()
	_ZN10Animations9SaveToCSVEv @ 38
;	Animations::Animations()
	_ZN10AnimationsC1Ev @ 39
;	Animations::Animations()
	_ZN10AnimationsC2Ev @ 40
;	Animations::~Animations()
	_ZN10AnimationsD1Ev @ 41
;	Animations::~Animations()
	_ZN10AnimationsD2Ev @ 42
;	Messagebox::OKClick(Component*)
	_ZN10Messagebox7OKClickEP9Component @ 43
;	Messagebox::Messagebox(char const*)
	_ZN10MessageboxC1EPKc @ 44
;	Messagebox::Messagebox(char const*)
	_ZN10MessageboxC2EPKc @ 45
;	Messagebox::~Messagebox()
	_ZN10MessageboxD1Ev @ 46
;	Messagebox::~Messagebox()
	_ZN10MessageboxD2Ev @ 47
;	Pointlight::GetEnabled()
	_ZN10Pointlight10GetEnabledEv @ 48
;	Pointlight::SetEnabled(bool)
	_ZN10Pointlight10SetEnabledEb @ 49
;	Pointlight::GetPosition()
	_ZN10Pointlight11GetPositionEv @ 50
;	Pointlight::SetPosition(float3)
	_ZN10Pointlight11SetPositionE6float3 @ 51
;	Pointlight::GetColor()
	_ZN10Pointlight8GetColorEv @ 52
;	Pointlight::SetColor(float3)
	_ZN10Pointlight8SetColorE6float3 @ 53
;	Pointlight::Pointlight(Lights*, float3, float3, bool)
	_ZN10PointlightC1EP6Lights6float3S2_b @ 54
;	Pointlight::Pointlight(Lights*, float3, float3, bool)
	_ZN10PointlightC2EP6Lights6float3S2_b @ 55
;	Pointlight::~Pointlight()
	_ZN10PointlightD1Ev @ 56
;	Pointlight::~Pointlight()
	_ZN10PointlightD2Ev @ 57
;	RenderTarget::GetTexture()
	_ZN12RenderTarget10GetTextureEv @ 58
;	RenderTarget::GetTopSurface()
	_ZN12RenderTarget13GetTopSurfaceEv @ 59
;	RenderTarget::GetDepthTopSurface()
	_ZN12RenderTarget18GetDepthTopSurfaceEv @ 60
;	RenderTarget::Clear()
	_ZN12RenderTarget5ClearEv @ 61
;	RenderTarget::Create(unsigned int, unsigned int, _D3DFORMAT, bool)
	_ZN12RenderTarget6CreateEjj10_D3DFORMATb @ 62
;	RenderTarget::RenderTarget(unsigned int, unsigned int, _D3DFORMAT, bool)
	_ZN12RenderTargetC1Ejj10_D3DFORMATb @ 63
;	RenderTarget::RenderTarget()
	_ZN12RenderTargetC1Ev @ 64
;	RenderTarget::RenderTarget(unsigned int, unsigned int, _D3DFORMAT, bool)
	_ZN12RenderTargetC2Ejj10_D3DFORMATb @ 65
;	RenderTarget::RenderTarget()
	_ZN12RenderTargetC2Ev @ 66
;	RenderTarget::~RenderTarget()
	_ZN12RenderTargetD1Ev @ 67
;	RenderTarget::~RenderTarget()
	_ZN12RenderTargetD2Ev @ 68
;	Key::Press()
	_ZN3Key5PressEv @ 69
;	Key::Release()
	_ZN3Key7ReleaseEv @ 70
;	Key::Key(unsigned long long)
	_ZN3KeyC1Ey @ 71
;	Key::Key(unsigned long long, void (*)(void*))
	_ZN3KeyC1EyPFvPvE @ 72
;	Key::Key(unsigned long long)
	_ZN3KeyC2Ey @ 73
;	Key::Key(unsigned long long, void (*)(void*))
	_ZN3KeyC2EyPFvPvE @ 74
;	Key::~Key()
	_ZN3KeyD1Ev @ 75
;	Key::~Key()
	_ZN3KeyD2Ev @ 76
;	Edit::DrawTextA(ID3DXFont*, ID3DXSprite*)
	_ZN4Edit9DrawTextAEP9ID3DXFontP11ID3DXSprite @ 77
;	Edit::Edit(int, int, int, int, char const*)
	_ZN4EditC1EiiiiPKc @ 78
;	Edit::Edit(int, int, int, int, char const*)
	_ZN4EditC2EiiiiPKc @ 79
;	Edit::~Edit()
	_ZN4EditD1Ev @ 80
;	Edit::~Edit()
	_ZN4EditD2Ev @ 81
;	Bevel::Bevel(int, int, int)
	_ZN5BevelC1Eiii @ 82
;	Bevel::Bevel(int, int, int)
	_ZN5BevelC2Eiii @ 83
;	Clock::GetTimeSec()
	_ZN5Clock10GetTimeSecEv @ 84
;	Clock::Reset()
	_ZN5Clock5ResetEv @ 85
;	Clock::Start()
	_ZN5Clock5StartEv @ 86
;	Clock::Clock(bool)
	_ZN5ClockC1Eb @ 87
;	Clock::Clock(bool)
	_ZN5ClockC2Eb @ 88
;	Clock::~Clock()
	_ZN5ClockD1Ev @ 89
;	Clock::~Clock()
	_ZN5ClockD2Ev @ 90
;	Label::AddCaption(char const*)
	_ZN5Label10AddCaptionEPKc @ 91
;	Label::GetCaption()
	_ZN5Label10GetCaptionEv @ 92
;	Label::RemoveChar()
	_ZN5Label10RemoveCharEv @ 93
;	Label::SetCaption(char const*)
	_ZN5Label10SetCaptionEPKc @ 94
;	Label::SetCaption(float, char const*)
	_ZN5Label10SetCaptionEfPKc @ 95
;	Label::AddChar(char)
	_ZN5Label7AddCharEc @ 96
;	Label::DrawTextA(ID3DXFont*, ID3DXSprite*)
	_ZN5Label9DrawTextAEP9ID3DXFontP11ID3DXSprite @ 97
;	Label::Label(int, int, int, int, char const*, bool)
	_ZN5LabelC1EiiiiPKcb @ 98
;	Label::Label(int, int, int, int, char const*, bool)
	_ZN5LabelC2EiiiiPKcb @ 99
;	Label::~Label()
	_ZN5LabelD1Ev @ 100
;	Label::~Label()
	_ZN5LabelD2Ev @ 101
;	Model::Load2DQuad(float, float, float, float)
	_ZN5Model10Load2DQuadEffff @ 102
;	Model::LoadBuffer(VERTEX*, unsigned int*, unsigned int, unsigned int)
	_ZN5Model10LoadBufferEP6VERTEXPjjj @ 103
;	Model::FreeBuffers()
	_ZN5Model11FreeBuffersEv @ 104
;	Model::LoadFromOBJ(char const*)
	_ZN5Model11LoadFromOBJEPKc @ 105
;	Model::LoadParticle()
	_ZN5Model12LoadParticleEv @ 106
;	Model::CreateTangents()
	_ZN5Model14CreateTangentsEv @ 107
;	Model::GetBoundingSphere()
	_ZN5Model17GetBoundingSphereEv @ 108
;	Model::Print()
	_ZN5Model5PrintEv @ 109
;	Model::GetSize()
	_ZN5Model7GetSizeEv @ 110
;	Model::Optimize()
	_ZN5Model8OptimizeEv @ 111
;	Model::LoadPlane(unsigned int, unsigned int, float, Heightmap*)
	_ZN5Model9LoadPlaneEjjfP9Heightmap @ 112
;	Model::SendToGPU()
	_ZN5Model9SendToGPUEv @ 113
;	Model::Model(char const*, bool)
	_ZN5ModelC1EPKcb @ 114
;	Model::Model()
	_ZN5ModelC1Ev @ 115
;	Model::Model(char const*, bool)
	_ZN5ModelC2EPKcb @ 116
;	Model::Model()
	_ZN5ModelC2Ev @ 117
;	Model::~Model()
	_ZN5ModelD1Ev @ 118
;	Model::~Model()
	_ZN5ModelD2Ev @ 119
;	Scene::BeginUpdate()
	_ZN5Scene11BeginUpdateEv @ 120
;	Scene::AddHeightMap(char const*, char const*, float, float, float, unsigned int)
	_ZN5Scene12AddHeightMapEPKcS1_fffj @ 121
;	Scene::OnLostDevice()
	_ZN5Scene12OnLostDeviceEv @ 122
;	Scene::OnRenderFrame(float)
	_ZN5Scene13OnRenderFrameEf @ 123
;	Scene::OnResetDevice()
	_ZN5Scene13OnResetDeviceEv @ 124
;	Scene::IntersectScene(float3, float3)
	_ZN5Scene14IntersectSceneE6float3S0_ @ 125
;	Scene::OnCameraChange(float)
	_ZN5Scene14OnCameraChangeEf @ 126
;	Scene::OnObjectsUpdate(float)
	_ZN5Scene15OnObjectsUpdateEf @ 127
;	Scene::StaticOnRenderFrame(void*, double)
	_ZN5Scene19StaticOnRenderFrameEPvd @ 128
;	Scene::StaticOnCameraChange(void*, double)
	_ZN5Scene20StaticOnCameraChangeEPvd @ 129
;	Scene::StaticOnObjectsUpdate(void*, double)
	_ZN5Scene21StaticOnObjectsUpdateEPvd @ 130
;	Scene::Load(char const*)
	_ZN5Scene4LoadEPKc @ 131
;	Scene::Clear()
	_ZN5Scene5ClearEv @ 132
;	Scene::Update()
	_ZN5Scene6UpdateEv @ 133
;	Scene::EndUpdate()
	_ZN5Scene9EndUpdateEv @ 134
;	Scene::Scene()
	_ZN5SceneC1Ev @ 135
;	Scene::Scene()
	_ZN5SceneC2Ev @ 136
;	Scene::~Scene()
	_ZN5SceneD1Ev @ 137
;	Scene::~Scene()
	_ZN5SceneD2Ev @ 138
;	Timer::GetFinished()
	_ZN5Timer11GetFinishedEv @ 139
;	Timer::OnUpdateTime(double)
	_ZN5Timer12OnUpdateTimeEd @ 140
;	Timer::SetTime(int, bool)
	_ZN5Timer7SetTimeEib @ 141
;	Timer::AddEvent(void (*)(void*, double), void*)
	_ZN5Timer8AddEventEPFvPvdES0_ @ 142
;	Timer::Timer()
	_ZN5TimerC1Ev @ 143
;	Timer::Timer()
	_ZN5TimerC2Ev @ 144
;	Timer::~Timer()
	_ZN5TimerD1Ev @ 145
;	Timer::~Timer()
	_ZN5TimerD2Ev @ 146
;	Button::DrawTextA(ID3DXFont*, ID3DXSprite*)
	_ZN6Button9DrawTextAEP9ID3DXFontP11ID3DXSprite @ 147
;	Button::Button(int, int, int, int, char const*)
	_ZN6ButtonC1EiiiiPKc @ 148
;	Button::Button(int, int, int, int, char const*)
	_ZN6ButtonC2EiiiiPKc @ 149
;	Button::~Button()
	_ZN6ButtonD1Ev @ 150
;	Button::~Button()
	_ZN6ButtonD2Ev @ 151
;	Camera::BeginUpdate()
	_ZN6Camera11BeginUpdateEv @ 152
;	Camera::UpdateAngles()
	_ZN6Camera12UpdateAnglesEv @ 153
;	Camera::UpdateVectors()
	_ZN6Camera13UpdateVectorsEv @ 154
;	Camera::UpdateMatrices()
	_ZN6Camera14UpdateMatricesEv @ 155
;	Camera::SetFrustumPlane(PLANE*, float3&, float3&, float3&)
	_ZN6Camera15SetFrustumPlaneEP5PLANER6float3S3_S3_ @ 156
;	Camera::SetMaxViewDistance(float)
	_ZN6Camera18SetMaxViewDistanceEf @ 157
;	Camera::SetMinViewDistance(float)
	_ZN6Camera18SetMinViewDistanceEf @ 158
;	Camera::UpdateFrustumPlanes()
	_ZN6Camera19UpdateFrustumPlanesEv @ 159
;	Camera::Move(float3)
	_ZN6Camera4MoveE6float3 @ 160
;	Camera::Print()
	_ZN6Camera5PrintEv @ 161
;	Camera::SetDir(float3)
	_ZN6Camera6SetDirE6float3 @ 162
;	Camera::SetFOV(float)
	_ZN6Camera6SetFOVEf @ 163
;	Camera::SetPos(float3)
	_ZN6Camera6SetPosE6float3 @ 164
;	Camera::Update()
	_ZN6Camera6UpdateEv @ 165
;	Camera::SetRatio(float)
	_ZN6Camera8SetRatioEf @ 166
;	Camera::EndUpdate()
	_ZN6Camera9EndUpdateEv @ 167
;	Camera::IsVisible(Object*)
	_ZN6Camera9IsVisibleEP6Object @ 168
;	Camera::SetLookAt(float3)
	_ZN6Camera9SetLookAtE6float3 @ 169
;	Camera::Camera()
	_ZN6CameraC1Ev @ 170
;	Camera::Camera()
	_ZN6CameraC2Ev @ 171
;	Camera::~Camera()
	_ZN6CameraD1Ev @ 172
;	Camera::~Camera()
	_ZN6CameraD2Ev @ 173
;	Lights::AddDirlight(Dirlight*)
	_ZN6Lights11AddDirlightEP8Dirlight @ 174
;	Lights::BeginUpdate()
	_ZN6Lights11BeginUpdateEv @ 175
;	Lights::AddSpotlight(Spotlight*)
	_ZN6Lights12AddSpotlightEP9Spotlight @ 176
;	Lights::OnLostDevice()
	_ZN6Lights12OnLostDeviceEv @ 177
;	Lights::OnUpdateTime(float)
	_ZN6Lights12OnUpdateTimeEf @ 178
;	Lights::AddPointlight(float3, float3, bool)
	_ZN6Lights13AddPointlightE6float3S0_b @ 179
;	Lights::OnResetDevice()
	_ZN6Lights13OnResetDeviceEv @ 180
;	Lights::DeleteDirlight(Dirlight*)
	_ZN6Lights14DeleteDirlightEP8Dirlight @ 181
;	Lights::DeleteSpotlight(Spotlight*)
	_ZN6Lights15DeleteSpotlightEP9Spotlight @ 182
;	Lights::SetAmbientlight(float)
	_ZN6Lights15SetAmbientlightEf @ 183
;	Lights::DeletePointlight(Pointlight*)
	_ZN6Lights16DeletePointlightEP10Pointlight @ 184
;	Lights::StaticOnUpdateTime(void*, double)
	_ZN6Lights18StaticOnUpdateTimeEPvd @ 185
;	Lights::Clear()
	_ZN6Lights5ClearEv @ 186
;	Lights::Print()
	_ZN6Lights5PrintEv @ 187
;	Lights::Update()
	_ZN6Lights6UpdateEv @ 188
;	Lights::EndUpdate()
	_ZN6Lights9EndUpdateEv @ 189
;	Lights::Lights()
	_ZN6LightsC1Ev @ 190
;	Lights::Lights()
	_ZN6LightsC2Ev @ 191
;	Lights::~Lights()
	_ZN6LightsD1Ev @ 192
;	Lights::~Lights()
	_ZN6LightsD2Ev @ 193
;	Models::GetByFileName(char const*)
	_ZN6Models13GetByFileNameEPKc @ 194
;	Models::GetByFullPath(char const*)
	_ZN6Models13GetByFullPathEPKc @ 195
;	Models::Add(Model*)
	_ZN6Models3AddEP5Model @ 196
;	Models::Add(char const*, bool)
	_ZN6Models3AddEPKcb @ 197
;	Models::Add()
	_ZN6Models3AddEv @ 198
;	Models::Clear()
	_ZN6Models5ClearEv @ 199
;	Models::Print()
	_ZN6Models5PrintEv @ 200
;	Models::Delete(Model*)
	_ZN6Models6DeleteEP5Model @ 201
;	Models::AddPlane(unsigned int, unsigned int, float, Heightmap*, bool)
	_ZN6Models8AddPlaneEjjfP9Heightmapb @ 202
;	Models::SaveToCSV()
	_ZN6Models9SaveToCSVEv @ 203
;	Models::Models()
	_ZN6ModelsC1Ev @ 204
;	Models::Models()
	_ZN6ModelsC2Ev @ 205
;	Models::~Models()
	_ZN6ModelsD1Ev @ 206
;	Models::~Models()
	_ZN6ModelsD2Ev @ 207
;	Object::GetScaling()
	_ZN6Object10GetScalingEv @ 208
;	Object::SetScaling(float)
	_ZN6Object10SetScalingEf @ 209
;	Object::BeginUpdate()
	_ZN6Object11BeginUpdateEv @ 210
;	Object::SetRotation(float3 const&)
	_ZN6Object11SetRotationERK6float3 @ 211
;	Object::SetRotation(float4x4 const&)
	_ZN6Object11SetRotationERK8float4x4 @ 212
;	Object::GetAnimation()
	_ZN6Object12GetAnimationEv @ 213
;	Object::LoadFromFile(char const*)
	_ZN6Object12LoadFromFileEPKc @ 214
;	Object::SetAnimation(Animation*)
	_ZN6Object12SetAnimationEP9Animation @ 215
;	Object::AddDetailLevel(DetailLevel*)
	_ZN6Object14AddDetailLevelEP11DetailLevel @ 216
;	Object::AddDetailLevel(Model*)
	_ZN6Object14AddDetailLevelEP5Model @ 217
;	Object::AddDetailLevel(Model*, float)
	_ZN6Object14AddDetailLevelEP5Modelf @ 218
;	Object::AddDetailLevel(char const*)
	_ZN6Object14AddDetailLevelEPKc @ 219
;	Object::GetDetailLevel(float)
	_ZN6Object14GetDetailLevelEf @ 220
;	Object::GetTranslation()
	_ZN6Object14GetTranslationEv @ 221
;	Object::IntersectModel(float3, float3)
	_ZN6Object14IntersectModelE6float3S0_ @ 222
;	Object::SetRotationDeg(float3 const&)
	_ZN6Object14SetRotationDegERK6float3 @ 223
;	Object::SetTranslation(float3 const&)
	_ZN6Object14SetTranslationERK6float3 @ 224
;	Object::SetTranslation(float4x4 const&)
	_ZN6Object14SetTranslationERK8float4x4 @ 225
;	Object::IntersectSphere(float3, float3)
	_ZN6Object15IntersectSphereE6float3S0_ @ 226
;	Object::GetBoundingModel()
	_ZN6Object16GetBoundingModelEv @ 227
;	Object::ClearDetailLevels()
	_ZN6Object17ClearDetailLevelsEv @ 228
;	Object::Move(float3 const&)
	_ZN6Object4MoveERK6float3 @ 229
;	Object::Clear()
	_ZN6Object5ClearEv @ 230
;	Object::Print()
	_ZN6Object5PrintEv @ 231
;	Object::Update()
	_ZN6Object6UpdateEv @ 232
;	Object::GetName()
	_ZN6Object7GetNameEv @ 233
;	Object::SetName(char const*)
	_ZN6Object7SetNameEPKc @ 234
;	Object::EndUpdate()
	_ZN6Object9EndUpdateEv @ 235
;	Object::Object(char const*)
	_ZN6ObjectC1EPKc @ 236
;	Object::Object(char const*, float3 const&, float4x4 const&, float)
	_ZN6ObjectC1EPKcRK6float3RK8float4x4f @ 237
;	Object::Object(char const*, float3 const&, float3 const&, float)
	_ZN6ObjectC1EPKcRK6float3S4_f @ 238
;	Object::Object(char const*, char const*, char const*, float3 const&, float4x4 const&, float)
	_ZN6ObjectC1EPKcS1_S1_RK6float3RK8float4x4f @ 239
;	Object::Object(char const*, char const*, char const*, float3 const&, float3 const&, float)
	_ZN6ObjectC1EPKcS1_S1_RK6float3S4_f @ 240
;	Object::Object(char const*)
	_ZN6ObjectC2EPKc @ 241
;	Object::Object(char const*, float3 const&, float4x4 const&, float)
	_ZN6ObjectC2EPKcRK6float3RK8float4x4f @ 242
;	Object::Object(char const*, float3 const&, float3 const&, float)
	_ZN6ObjectC2EPKcRK6float3S4_f @ 243
;	Object::Object(char const*, char const*, char const*, float3 const&, float4x4 const&, float)
	_ZN6ObjectC2EPKcS1_S1_RK6float3RK8float4x4f @ 244
;	Object::Object(char const*, char const*, char const*, float3 const&, float3 const&, float)
	_ZN6ObjectC2EPKcS1_S1_RK6float3S4_f @ 245
;	Object::~Object()
	_ZN6ObjectD1Ev @ 246
;	Object::~Object()
	_ZN6ObjectD2Ev @ 247
;	Skybox::SetSunlight(char const*, char const*)
	_ZN6Skybox11SetSunlightEPKcS1_ @ 248
;	Skybox::OnLostDevice()
	_ZN6Skybox12OnLostDeviceEv @ 249
;	Skybox::OnUpdateTime(double)
	_ZN6Skybox12OnUpdateTimeEd @ 250
;	Skybox::OnResetDevice()
	_ZN6Skybox13OnResetDeviceEv @ 251
;	Skybox::StaticOnUpdateTime(void*, double)
	_ZN6Skybox18StaticOnUpdateTimeEPvd @ 252
;	Skybox::Clear()
	_ZN6Skybox5ClearEv @ 253
;	Skybox::SetSkybox(char const*, char const*)
	_ZN6Skybox9SetSkyboxEPKcS1_ @ 254
;	Skybox::Skybox()
	_ZN6SkyboxC1Ev @ 255
;	Skybox::Skybox()
	_ZN6SkyboxC2Ev @ 256
;	Skybox::~Skybox()
	_ZN6SkyboxD1Ev @ 257
;	Skybox::~Skybox()
	_ZN6SkyboxD2Ev @ 258
;	Timers::OnUpdateTime(float)
	_ZN6Timers12OnUpdateTimeEf @ 259
;	Timers::StaticOnUpdateTime(void*, double)
	_ZN6Timers18StaticOnUpdateTimeEPvd @ 260
;	Timers::Add(Timer*)
	_ZN6Timers3AddEP5Timer @ 261
;	Timers::Clear()
	_ZN6Timers5ClearEv @ 262
;	Timers::Delete(Timer*)
	_ZN6Timers6DeleteEP5Timer @ 263
;	Timers::SaveToCSV()
	_ZN6Timers9SaveToCSVEv @ 264
;	Timers::Timers()
	_ZN6TimersC1Ev @ 265
;	Timers::Timers()
	_ZN6TimersC2Ev @ 266
;	Timers::~Timers()
	_ZN6TimersD1Ev @ 267
;	Timers::~Timers()
	_ZN6TimersD2Ev @ 268
;	Window::DrawTextA(ID3DXFont*, ID3DXSprite*)
	_ZN6Window9DrawTextAEP9ID3DXFontP11ID3DXSprite @ 269
;	Window::Window(int, int, int, int, char const*)
	_ZN6WindowC1EiiiiPKc @ 270
;	Window::Window(int, int, int, int, char const*)
	_ZN6WindowC2EiiiiPKc @ 271
;	Window::~Window()
	_ZN6WindowD1Ev @ 272
;	Window::~Window()
	_ZN6WindowD2Ev @ 273
;	float2::Dot(float2 const&)
	_ZN6float23DotERKS_ @ 274
;	float2::Length()
	_ZN6float26LengthEv @ 275
;	float2::Normalize()
	_ZN6float29NormalizeEv @ 276
;	float2::SetLength(float)
	_ZN6float29SetLengthEf @ 277
;	float2::float2(D3DXVECTOR2 const&)
	_ZN6float2C1ERK11D3DXVECTOR2 @ 278
;	float2::float2(tagPOINT const&)
	_ZN6float2C1ERK8tagPOINT @ 279
;	float2::float2(float, float)
	_ZN6float2C1Eff @ 280
;	float2::float2()
	_ZN6float2C1Ev @ 281
;	float2::float2(D3DXVECTOR2 const&)
	_ZN6float2C2ERK11D3DXVECTOR2 @ 282
;	float2::float2(tagPOINT const&)
	_ZN6float2C2ERK8tagPOINT @ 283
;	float2::float2(float, float)
	_ZN6float2C2Eff @ 284
;	float2::float2()
	_ZN6float2C2Ev @ 285
;	float3::TransformCoord(D3DXMATRIX const&)
	_ZN6float314TransformCoordERK10D3DXMATRIX @ 286
;	float3::TransformNormal(D3DXMATRIX const&)
	_ZN6float315TransformNormalERK10D3DXMATRIX @ 287
;	float3::Dot(float3 const&)
	_ZN6float33DotERKS_ @ 288
;	float3::Max(float3 const&)
	_ZN6float33MaxERKS_ @ 289
;	float3::Min(float3 const&)
	_ZN6float33MinERKS_ @ 290
;	float3::Cross(float3 const&)
	_ZN6float35CrossERKS_ @ 291
;	float3::Length()
	_ZN6float36LengthEv @ 292
;	float3::Normalize()
	_ZN6float39NormalizeEv @ 293
;	float3::SetLength(float)
	_ZN6float39SetLengthEf @ 294
;	float3::Transform(D3DXMATRIX const&)
	_ZN6float39TransformERK10D3DXMATRIX @ 295
;	float3::float3(D3DXVECTOR3 const&)
	_ZN6float3C1ERK11D3DXVECTOR3 @ 296
;	float3::float3(float)
	_ZN6float3C1Ef @ 297
;	float3::float3(float, float, float)
	_ZN6float3C1Efff @ 298
;	float3::float3()
	_ZN6float3C1Ev @ 299
;	float3::float3(D3DXVECTOR3 const&)
	_ZN6float3C2ERK11D3DXVECTOR3 @ 300
;	float3::float3(float)
	_ZN6float3C2Ef @ 301
;	float3::float3(float, float, float)
	_ZN6float3C2Efff @ 302
;	float3::float3()
	_ZN6float3C2Ev @ 303
;	float4::Dot(float4 const&)
	_ZN6float43DotERKS_ @ 304
;	float4::Length()
	_ZN6float46LengthEv @ 305
;	float4::Normalize()
	_ZN6float49NormalizeEv @ 306
;	float4::SetLength(float)
	_ZN6float49SetLengthEf @ 307
;	float4::float4(D3DXVECTOR4 const&)
	_ZN6float4C1ERK11D3DXVECTOR4 @ 308
;	float4::float4(float, float, float, float)
	_ZN6float4C1Effff @ 309
;	float4::float4()
	_ZN6float4C1Ev @ 310
;	float4::float4(D3DXVECTOR4 const&)
	_ZN6float4C2ERK11D3DXVECTOR4 @ 311
;	float4::float4(float, float, float, float)
	_ZN6float4C2Effff @ 312
;	float4::float4()
	_ZN6float4C2Ev @ 313
;	Console::OnSaveClick(Component*)
	_ZN7Console11OnSaveClickEP9Component @ 314
;	Console::OnClearClick(Component*)
	_ZN7Console12OnClearClickEP9Component @ 315
;	Console::OnReturnPress(Component*)
	_ZN7Console13OnReturnPressEP9Component @ 316
;	Console::ProcessString(char const*)
	_ZN7Console13ProcessStringEPKc @ 317
;	Console::WriteEndTimer(char const*)
	_ZN7Console13WriteEndTimerEPKc @ 318
;	Console::WriteBeginTimer(char const*)
	_ZN7Console15WriteBeginTimerEPKc @ 319
;	Console::Write(char const*, ...)
	_ZN7Console5WriteEPKcz @ 320
;	Console::WriteVar(char const*, void*)
	_ZN7Console8WriteVarEPKcPv @ 321
;	Console::WriteVar(char const*, float2 const&)
	_ZN7Console8WriteVarEPKcRK6float2 @ 322
;	Console::WriteVar(char const*, float3 const&)
	_ZN7Console8WriteVarEPKcRK6float3 @ 323
;	Console::WriteVar(char const*, float4 const&)
	_ZN7Console8WriteVarEPKcRK6float4 @ 324
;	Console::WriteVar(char const*, float4x4 const&)
	_ZN7Console8WriteVarEPKcRK8float4x4 @ 325
;	Console::WriteVar(char const*, char const*)
	_ZN7Console8WriteVarEPKcS1_ @ 326
;	Console::WriteVar(char const*, bool)
	_ZN7Console8WriteVarEPKcb @ 327
;	Console::WriteVar(char const*, double)
	_ZN7Console8WriteVarEPKcd @ 328
;	Console::WriteVar(char const*, float)
	_ZN7Console8WriteVarEPKcf @ 329
;	Console::WriteVar(char const*, int)
	_ZN7Console8WriteVarEPKci @ 330
;	Console::WriteVar(char const*, unsigned int)
	_ZN7Console8WriteVarEPKcj @ 331
;	Console::Console()
	_ZN7ConsoleC1Ev @ 332
;	Console::Console()
	_ZN7ConsoleC2Ev @ 333
;	Console::~Console()
	_ZN7ConsoleD1Ev @ 334
;	Console::~Console()
	_ZN7ConsoleD2Ev @ 335
;	Objects::BeginUpdate()
	_ZN7Objects11BeginUpdateEv @ 336
;	Objects::Add(Object*)
	_ZN7Objects3AddEP6Object @ 337
;	Objects::end()
	_ZN7Objects3endEv @ 338
;	Objects::size()
	_ZN7Objects4sizeEv @ 339
;	Objects::Clear()
	_ZN7Objects5ClearEv @ 340
;	Objects::Print()
	_ZN7Objects5PrintEv @ 341
;	Objects::begin()
	_ZN7Objects5beginEv @ 342
;	Objects::Delete(Object*)
	_ZN7Objects6DeleteEP6Object @ 343
;	Objects::Update()
	_ZN7Objects6UpdateEv @ 344
;	Objects::AddPlane(char const*, char const*, float3 const&, float3 const&, float, unsigned int, unsigned int, Heightmap*)
	_ZN7Objects8AddPlaneEPKcS1_RK6float3S4_fjjP9Heightmap @ 345
;	Objects::EndUpdate()
	_ZN7Objects9EndUpdateEv @ 346
;	Objects::GetByName(char const*)
	_ZN7Objects9GetByNameEPKc @ 347
;	Objects::Objects()
	_ZN7ObjectsC1Ev @ 348
;	Objects::Objects()
	_ZN7ObjectsC2Ev @ 349
;	Objects::~Objects()
	_ZN7ObjectsD1Ev @ 350
;	Objects::~Objects()
	_ZN7ObjectsD2Ev @ 351
;	Options::LoadFromFile(char const*)
	_ZN7Options12LoadFromFileEPKc @ 352
;	Options::OnApplyClick(Component*)
	_ZN7Options12OnApplyClickEP9Component @ 353
;	Options::OnShowDialog(Component*)
	_ZN7Options12OnShowDialogEP9Component @ 354
;	Options::LoadInterface()
	_ZN7Options13LoadInterfaceEv @ 355
;	Options::SaveInterface()
	_ZN7Options13SaveInterfaceEv @ 356
;	Options::SetToDefaults()
	_ZN7Options13SetToDefaultsEv @ 357
;	Options::FindMaxResolution()
	_ZN7Options17FindMaxResolutionEv @ 358
;	Options::Options(char const*)
	_ZN7OptionsC1EPKc @ 359
;	Options::Options(char const*)
	_ZN7OptionsC2EPKc @ 360
;	Options::~Options()
	_ZN7OptionsD1Ev @ 361
;	Options::~Options()
	_ZN7OptionsD2Ev @ 362
;	Texture::Print()
	_ZN7Texture5PrintEv @ 363
;	Texture::GetInfo(_D3DSURFACE_DESC*)
	_ZN7Texture7GetInfoEP16_D3DSURFACE_DESC @ 364
;	Texture::GetSize()
	_ZN7Texture7GetSizeEv @ 365
;	Texture::GetWidth()
	_ZN7Texture8GetWidthEv @ 366
;	Texture::GetHeight()
	_ZN7Texture9GetHeightEv @ 367
;	Texture::Texture(char const*)
	_ZN7TextureC1EPKc @ 368
;	Texture::Texture()
	_ZN7TextureC1Ev @ 369
;	Texture::Texture(char const*)
	_ZN7TextureC2EPKc @ 370
;	Texture::Texture()
	_ZN7TextureC2Ev @ 371
;	Texture::~Texture()
	_ZN7TextureD1Ev @ 372
;	Texture::~Texture()
	_ZN7TextureD2Ev @ 373
;	Dirlight::GetEnabled()
	_ZN8Dirlight10GetEnabledEv @ 374
;	Dirlight::SetEnabled(bool)
	_ZN8Dirlight10SetEnabledEb @ 375
;	Dirlight::GetDirection()
	_ZN8Dirlight12GetDirectionEv @ 376
;	Dirlight::SetDirection(float3)
	_ZN8Dirlight12SetDirectionE6float3 @ 377
;	Dirlight::GetProjection()
	_ZN8Dirlight13GetProjectionEv @ 378
;	Dirlight::GetCastShadows()
	_ZN8Dirlight14GetCastShadowsEv @ 379
;	Dirlight::SetCastShadows(bool)
	_ZN8Dirlight14SetCastShadowsEb @ 380
;	Dirlight::GetUp()
	_ZN8Dirlight5GetUpEv @ 381
;	Dirlight::Print()
	_ZN8Dirlight5PrintEv @ 382
;	Dirlight::GetColor()
	_ZN8Dirlight8GetColorEv @ 383
;	Dirlight::SetColor(float3)
	_ZN8Dirlight8SetColorE6float3 @ 384
;	Dirlight::GetLookat()
	_ZN8Dirlight9GetLookatEv @ 385
;	Dirlight::Dirlight(float3, float3, bool)
	_ZN8DirlightC1E6float3S0_b @ 386
;	Dirlight::Dirlight(float3, float3, bool)
	_ZN8DirlightC2E6float3S0_b @ 387
;	Dirlight::~Dirlight()
	_ZN8DirlightD1Ev @ 388
;	Dirlight::~Dirlight()
	_ZN8DirlightD2Ev @ 389
;	Dropdown::GetItemCount()
	_ZN8Dropdown12GetItemCountEv @ 390
;	Dropdown::GetSelection()
	_ZN8Dropdown12GetSelectionEv @ 391
;	Dropdown::SetSelection(char const*)
	_ZN8Dropdown12SetSelectionEPKc @ 392
;	Dropdown::Clear()
	_ZN8Dropdown5ClearEv @ 393
;	Dropdown::Toggle()
	_ZN8Dropdown6ToggleEv @ 394
;	Dropdown::AddItem(char const*)
	_ZN8Dropdown7AddItemEPKc @ 395
;	Dropdown::GetItem(unsigned int)
	_ZN8Dropdown7GetItemEj @ 396
;	Dropdown::DrawTextA(ID3DXFont*, ID3DXSprite*)
	_ZN8Dropdown9DrawTextAEP9ID3DXFontP11ID3DXSprite @ 397
;	Dropdown::Dropdown(int, int, int, int)
	_ZN8DropdownC1Eiiii @ 398
;	Dropdown::Dropdown(int, int, int, int)
	_ZN8DropdownC2Eiiii @ 399
;	Dropdown::~Dropdown()
	_ZN8DropdownD1Ev @ 400
;	Dropdown::~Dropdown()
	_ZN8DropdownD2Ev @ 401
;	Material::LoadFromFile(char const*)
	_ZN8Material12LoadFromFileEPKc @ 402
;	Material::Clear()
	_ZN8Material5ClearEv @ 403
;	Material::Print()
	_ZN8Material5PrintEv @ 404
;	Material::Material()
	_ZN8MaterialC1Ev @ 405
;	Material::Material()
	_ZN8MaterialC2Ev @ 406
;	Material::~Material()
	_ZN8MaterialD1Ev @ 407
;	Material::~Material()
	_ZN8MaterialD2Ev @ 408
;	Renderer::PassEffect(FXShader*, IDirect3DSurface9*)
	_ZN8Renderer10PassEffectEP8FXShaderP17IDirect3DSurface9 @ 409
;	Renderer::PassShader(FXShader*)
	_ZN8Renderer10PassShaderEP8FXShader @ 410
;	Renderer::UpdateTime()
	_ZN8Renderer10UpdateTimeEv @ 411
;	Renderer::DrawTexture(IDirect3DTexture9*, float, float, float, float)
	_ZN8Renderer11DrawTextureEP17IDirect3DTexture9ffff @ 412
;	Renderer::DrawTexture(Texture*, float, float, float, float)
	_ZN8Renderer11DrawTextureEP7Textureffff @ 413
;	Renderer::FlushFrames()
	_ZN8Renderer11FlushFramesEv @ 414
;	Renderer::SaveBuffers()
	_ZN8Renderer11SaveBuffersEv @ 415
;	Renderer::SetMaterial(Object*)
	_ZN8Renderer11SetMaterialEP6Object @ 416
;	Renderer::ShowTooltip(int)
	_ZN8Renderer11ShowTooltipEi @ 417
;	Renderer::DrawTextLine(char const*, int, int)
	_ZN8Renderer12DrawTextLineEPKcii @ 418
;	Renderer::EndTechnique()
	_ZN8Renderer12EndTechniqueEv @ 419
;	Renderer::GetTimeMulti()
	_ZN8Renderer12GetTimeMultiEv @ 420
;	Renderer::OnLostDevice()
	_ZN8Renderer12OnLostDeviceEv @ 421
;	Renderer::PrintTooltip()
	_ZN8Renderer12PrintTooltipEv @ 422
;	Renderer::SetTimeMulti(int)
	_ZN8Renderer12SetTimeMultiEi @ 423
;	Renderer::DrawComponent(Component*)
	_ZN8Renderer13DrawComponentEP9Component @ 424
;	Renderer::DrawInterface(Interface*)
	_ZN8Renderer13DrawInterfaceEP9Interface @ 425
;	Renderer::DrawTextBlock(char const*, int, int, int, int)
	_ZN8Renderer13DrawTextBlockEPKciiii @ 426
;	Renderer::GetBufferSize()
	_ZN8Renderer13GetBufferSizeEv @ 427
;	Renderer::OnResetDevice()
	_ZN8Renderer13OnResetDeviceEv @ 428
;	Renderer::SetFullScreen(bool)
	_ZN8Renderer13SetFullScreenEb @ 429
;	Renderer::ToggleTooltip()
	_ZN8Renderer13ToggleTooltipEv @ 430
;	Renderer::BeginTechnique(FXShader*)
	_ZN8Renderer14BeginTechniqueEP8FXShader @ 431
;	Renderer::BeginTechnique(char const*)
	_ZN8Renderer14BeginTechniqueEPKc @ 432
;	Renderer::GetResolutions(std::vector<_D3DDISPLAYMODE, std::allocator<_D3DDISPLAYMODE> >&)
	_ZN8Renderer14GetResolutionsERSt6vectorI15_D3DDISPLAYMODESaIS1_EE @ 433
;	Renderer::SaveFrameTimes()
	_ZN8Renderer14SaveFrameTimesEv @ 434
;	Renderer::GetClockTimeSec()
	_ZN8Renderer15GetClockTimeSecEv @ 435
;	Renderer::GetUITextExtent(char const*)
	_ZN8Renderer15GetUITextExtentEPKc @ 436
;	Renderer::GetClockTimeMins()
	_ZN8Renderer16GetClockTimeMinsEv @ 437
;	Renderer::GetPixelWorldRay(float2)
	_ZN8Renderer16GetPixelWorldRayE6float2 @ 438
;	Renderer::ReleaseResources()
	_ZN8Renderer16ReleaseResourcesEv @ 439
;	Renderer::SetSSAOVariables(Object*)
	_ZN8Renderer16SetSSAOVariablesEP6Object @ 440
;	Renderer::ToggleFullScreen()
	_ZN8Renderer16ToggleFullScreenEv @ 441
;	Renderer::UpdateBufferSize()
	_ZN8Renderer16UpdateBufferSizeEv @ 442
;	Renderer::GetClockTimeHours()
	_ZN8Renderer17GetClockTimeHoursEv @ 443
;	Renderer::GetCenteringCorner(float2)
	_ZN8Renderer18GetCenteringCornerE6float2 @ 444
;	Renderer::PixelsToProjection(float2)
	_ZN8Renderer18PixelsToProjectionE6float2 @ 445
;	Renderer::ProjectionToPixels(float2)
	_ZN8Renderer18ProjectionToPixelsE6float2 @ 446
;	Renderer::SetLightTransforms(Object*, float4x4)
	_ZN8Renderer18SetLightTransformsEP6Object8float4x4 @ 447
;	Renderer::ScheduleSaveBuffers()
	_ZN8Renderer19ScheduleSaveBuffersEv @ 448
;	Renderer::SetCameraTransforms(Object*)
	_ZN8Renderer19SetCameraTransformsEP6Object @ 449
;	Renderer::SetGenericVariables(Object*, float4x4)
	_ZN8Renderer19SetGenericVariablesEP6Object8float4x4 @ 450
;	Renderer::GetTooltipTextExtent(char const*)
	_ZN8Renderer20GetTooltipTextExtentEPKc @ 451
;	Renderer::DrawTextureFullScreen(IDirect3DTexture9*)
	_ZN8Renderer21DrawTextureFullScreenEP17IDirect3DTexture9 @ 452
;	Renderer::SetShadowMapVariables(Object*, float4x4)
	_ZN8Renderer21SetShadowMapVariablesEP6Object8float4x4 @ 453
;	Renderer::ScheduleSaveFrameTimes()
	_ZN8Renderer22ScheduleSaveFrameTimesEv @ 454
;	Renderer::End()
	_ZN8Renderer3EndEv @ 455
;	Renderer::Begin(bool)
	_ZN8Renderer5BeginEb @ 456
;	Renderer::AddTime(int, int)
	_ZN8Renderer7AddTimeEii @ 457
;	Renderer::GetTime()
	_ZN8Renderer7GetTimeEv @ 458
;	Renderer::Present()
	_ZN8Renderer7PresentEv @ 459
;	Renderer::SetTime(int, int)
	_ZN8Renderer7SetTimeEii @ 460
;	Renderer::EndScene()
	_ZN8Renderer8EndSceneEv @ 461
;	Renderer::DrawModel(Model*)
	_ZN8Renderer9DrawModelEP5Model @ 462
;	Renderer::DrawScene(Scene*)
	_ZN8Renderer9DrawSceneEP5Scene @ 463
;	Renderer::Renderer()
	_ZN8RendererC1Ev @ 464
;	Renderer::Renderer()
	_ZN8RendererC2Ev @ 465
;	Renderer::~Renderer()
	_ZN8RendererD1Ev @ 466
;	Renderer::~Renderer()
	_ZN8RendererD2Ev @ 467
;	Textures::GetByFileName(char const*)
	_ZN8Textures13GetByFileNameEPKc @ 468
;	Textures::GetByFullPath(char const*)
	_ZN8Textures13GetByFullPathEPKc @ 469
;	Textures::Add(Texture*)
	_ZN8Textures3AddEP7Texture @ 470
;	Textures::Add(char const*)
	_ZN8Textures3AddEPKc @ 471
;	Textures::Add()
	_ZN8Textures3AddEv @ 472
;	Textures::Clear()
	_ZN8Textures5ClearEv @ 473
;	Textures::Print()
	_ZN8Textures5PrintEv @ 474
;	Textures::Delete(Texture*)
	_ZN8Textures6DeleteEP7Texture @ 475
;	Textures::SaveToCSV()
	_ZN8Textures9SaveToCSVEv @ 476
;	Textures::Textures()
	_ZN8TexturesC1Ev @ 477
;	Textures::Textures()
	_ZN8TexturesC2Ev @ 478
;	Textures::~Textures()
	_ZN8TexturesD1Ev @ 479
;	Textures::~Textures()
	_ZN8TexturesD2Ev @ 480
;	float4x4::Determinant()
	_ZN8float4x411DeterminantEv @ 481
;	float4x4::Translation(D3DXVECTOR3 const&)
	_ZN8float4x411TranslationERK11D3DXVECTOR3 @ 482
;	float4x4::EulerRotation(D3DXVECTOR3 const&)
	_ZN8float4x413EulerRotationERK11D3DXVECTOR3 @ 483
;	float4x4::EulerRotationDeg(D3DXVECTOR3 const&)
	_ZN8float4x416EulerRotationDegERK11D3DXVECTOR3 @ 484
;	float4x4::LookAt(D3DXVECTOR3 const&, D3DXVECTOR3 const&)
	_ZN8float4x46LookAtERK11D3DXVECTOR3S2_ @ 485
;	float4x4::Inverse()
	_ZN8float4x47InverseEv @ 486
;	float4x4::Scaling(D3DXVECTOR3 const&)
	_ZN8float4x47ScalingERK11D3DXVECTOR3 @ 487
;	float4x4::Identity()
	_ZN8float4x48IdentityEv @ 488
;	float4x4::float4x4(D3DXMATRIX const&)
	_ZN8float4x4C1ERK10D3DXMATRIX @ 489
;	float4x4::float4x4()
	_ZN8float4x4C1Ev @ 490
;	float4x4::float4x4(D3DXMATRIX const&)
	_ZN8float4x4C2ERK10D3DXMATRIX @ 491
;	float4x4::float4x4()
	_ZN8float4x4C2Ev @ 492
;	Animation::GetEndTime()
	_ZN9Animation10GetEndTimeEv @ 493
;	Animation::IsFinished()
	_ZN9Animation10IsFinishedEv @ 494
;	Animation::AddKeyframe(Keyframe*)
	_ZN9Animation11AddKeyframeEP8Keyframe @ 495
;	Animation::GetStartTime()
	_ZN9Animation12GetStartTimeEv @ 496
;	Animation::OnUpdateTime(double)
	_ZN9Animation12OnUpdateTimeEd @ 497
;	Animation::ClearKeyframes()
	_ZN9Animation14ClearKeyframesEv @ 498
;	Animation::GetKeyframeAfter(double)
	_ZN9Animation16GetKeyframeAfterEd @ 499
;	Animation::GetKeyframeBefore(double)
	_ZN9Animation17GetKeyframeBeforeEd @ 500
;	Animation::Print()
	_ZN9Animation5PrintEv @ 501
;	Animation::GetPeriod()
	_ZN9Animation9GetPeriodEv @ 502
;	Animation::Animation(Object*, AnimationType)
	_ZN9AnimationC1EP6Object13AnimationType @ 503
;	Animation::Animation(Object*, AnimationType)
	_ZN9AnimationC2EP6Object13AnimationType @ 504
;	Animation::~Animation()
	_ZN9AnimationD1Ev @ 505
;	Animation::~Animation()
	_ZN9AnimationD2Ev @ 506
;	Benchmark::OnTimerEnd(void*, double)
	_ZN9Benchmark10OnTimerEndEPvd @ 507
;	Benchmark::OnSaveClick(Component*)
	_ZN9Benchmark11OnSaveClickEP9Component @ 508
;	Benchmark::AddFrameTime(float)
	_ZN9Benchmark12AddFrameTimeEf @ 509
;	Benchmark::OnPrintClick(Component*)
	_ZN9Benchmark12OnPrintClickEP9Component @ 510
;	Benchmark::GetSaveFolder(char*)
	_ZN9Benchmark13GetSaveFolderEPc @ 511
;	Benchmark::OnRenderFrame(void*, double)
	_ZN9Benchmark13OnRenderFrameEPvd @ 512
;	Benchmark::CreateInterface()
	_ZN9Benchmark15CreateInterfaceEv @ 513
;	Benchmark::GetLogSaveFileName(char*)
	_ZN9Benchmark18GetLogSaveFileNameEPc @ 514
;	Benchmark::GetPicSaveFileName(char*)
	_ZN9Benchmark18GetPicSaveFileNameEPc @ 515
;	Benchmark::Save()
	_ZN9Benchmark4SaveEv @ 516
;	Benchmark::Stop()
	_ZN9Benchmark4StopEv @ 517
;	Benchmark::Print()
	_ZN9Benchmark5PrintEv @ 518
;	Benchmark::Start(float)
	_ZN9Benchmark5StartEf @ 519
;	Benchmark::IsRunning()
	_ZN9Benchmark9IsRunningEv @ 520
;	Benchmark::Benchmark(float)
	_ZN9BenchmarkC1Ef @ 521
;	Benchmark::Benchmark()
	_ZN9BenchmarkC1Ev @ 522
;	Benchmark::Benchmark(float)
	_ZN9BenchmarkC2Ef @ 523
;	Benchmark::Benchmark()
	_ZN9BenchmarkC2Ev @ 524
;	Benchmark::~Benchmark()
	_ZN9BenchmarkD1Ev @ 525
;	Benchmark::~Benchmark()
	_ZN9BenchmarkD2Ev @ 526
;	Component::CreatePlane()
	_ZN9Component11CreatePlaneEv @ 527
;	Component::OnResetDevice()
	_ZN9Component13OnResetDeviceEv @ 528
;	Component::Move(int, int)
	_ZN9Component4MoveEii @ 529
;	Component::Show(bool)
	_ZN9Component4ShowEb @ 530
;	Component::Resize(int, int)
	_ZN9Component6ResizeEii @ 531
;	Component::SetPos(int, int)
	_ZN9Component6SetPosEii @ 532
;	Component::Toggle()
	_ZN9Component6ToggleEv @ 533
;	Component::GetRect(tagRECT*)
	_ZN9Component7GetRectEP7tagRECT @ 534
;	Component::AddChild(Component*)
	_ZN9Component8AddChildEPS_ @ 535
;	Component::IsVisible()
	_ZN9Component9IsVisibleEv @ 536
;	Component::Component(int, int, int, int)
	_ZN9ComponentC1Eiiii @ 537
;	Component::Component(int, int, int, int)
	_ZN9ComponentC2Eiiii @ 538
;	Component::~Component()
	_ZN9ComponentD1Ev @ 539
;	Component::~Component()
	_ZN9ComponentD2Ev @ 540
;	Interface::DoMouseDown(unsigned long long, long long)
	_ZN9Interface11DoMouseDownEyx @ 541
;	Interface::DoMouseMove(unsigned long long, long long)
	_ZN9Interface11DoMouseMoveEyx @ 542
;	Interface::AddComponent(Component*)
	_ZN9Interface12AddComponentEP9Component @ 543
;	Interface::DoMouseWheel(unsigned long long, long long)
	_ZN9Interface12DoMouseWheelEyx @ 544
;	Interface::OnLostDevice()
	_ZN9Interface12OnLostDeviceEv @ 545
;	Interface::OnResetDevice()
	_ZN9Interface13OnResetDeviceEv @ 546
;	Interface::GetComponentAt(int, int)
	_ZN9Interface14GetComponentAtEii @ 547
;	Interface::RemoveComponent(Component*)
	_ZN9Interface15RemoveComponentEP9Component @ 548
;	Interface::AddKey(Key*)
	_ZN9Interface6AddKeyEP3Key @ 549
;	Interface::DoKeyUp(unsigned long long, long long)
	_ZN9Interface7DoKeyUpEyx @ 550
;	Interface::DoKeyChar(unsigned long long, long long)
	_ZN9Interface9DoKeyCharEyx @ 551
;	Interface::DoKeyDown(unsigned long long, long long)
	_ZN9Interface9DoKeyDownEyx @ 552
;	Interface::DoMouseUp(unsigned long long, long long)
	_ZN9Interface9DoMouseUpEyx @ 553
;	Interface::OnMessage(HWND__*, unsigned int, unsigned long long, long long)
	_ZN9Interface9OnMessageEP6HWND__jyx @ 554
;	Interface::RemoveKey(Key*)
	_ZN9Interface9RemoveKeyEP3Key @ 555
;	Interface::Interface()
	_ZN9InterfaceC1Ev @ 556
;	Interface::Interface()
	_ZN9InterfaceC2Ev @ 557
;	Interface::~Interface()
	_ZN9InterfaceD1Ev @ 558
;	Interface::~Interface()
	_ZN9InterfaceD2Ev @ 559
;	Spotlight::GetEnabled()
	_ZN9Spotlight10GetEnabledEv @ 560
;	Spotlight::SetEnabled(bool)
	_ZN9Spotlight10SetEnabledEb @ 561
;	Spotlight::GetPosition()
	_ZN9Spotlight11GetPositionEv @ 562
;	Spotlight::SetPosition(float3)
	_ZN9Spotlight11SetPositionE6float3 @ 563
;	Spotlight::GetDirection()
	_ZN9Spotlight12GetDirectionEv @ 564
;	Spotlight::SetDirection(float3)
	_ZN9Spotlight12SetDirectionE6float3 @ 565
;	Spotlight::GetProjection()
	_ZN9Spotlight13GetProjectionEv @ 566
;	Spotlight::GetCastShadows()
	_ZN9Spotlight14GetCastShadowsEv @ 567
;	Spotlight::SetCastShadows(bool)
	_ZN9Spotlight14SetCastShadowsEb @ 568
;	Spotlight::Print()
	_ZN9Spotlight5PrintEv @ 569
;	Spotlight::GetAngle()
	_ZN9Spotlight8GetAngleEv @ 570
;	Spotlight::GetColor()
	_ZN9Spotlight8GetColorEv @ 571
;	Spotlight::SetAngle(float)
	_ZN9Spotlight8SetAngleEf @ 572
;	Spotlight::SetColor(float3)
	_ZN9Spotlight8SetColorE6float3 @ 573
;	Spotlight::SetLookat(float3)
	_ZN9Spotlight9SetLookatE6float3 @ 574
;	Spotlight::Spotlight(float3, float3, float3, float, bool)
	_ZN9SpotlightC1E6float3S0_S0_fb @ 575
;	Spotlight::Spotlight(float3, float3, float3, float, bool)
	_ZN9SpotlightC2E6float3S0_S0_fb @ 576
;	Spotlight::~Spotlight()
	_ZN9SpotlightD1Ev @ 577
;	Spotlight::~Spotlight()
	_ZN9SpotlightD2Ev @ 578
;	TimeEvent::AddPersistent(void (*)(void*, double), void*)
	_ZN9TimeEvent13AddPersistentEPFvPvdES0_ @ 579
;	TimeEvent::Add(void (*)(void*, double), void*)
	_ZN9TimeEvent3AddEPFvPvdES0_ @ 580
;	TimeEvent::Clear()
	_ZN9TimeEvent5ClearEv @ 581
;	TimeEvent::Delete(TimeEventStruct*)
	_ZN9TimeEvent6DeleteEP15TimeEventStruct @ 582
;	TimeEvent::Execute(double)
	_ZN9TimeEvent7ExecuteEd @ 583
;	TimeEvent::TimeEvent()
	_ZN9TimeEventC1Ev @ 584
;	TimeEvent::TimeEvent()
	_ZN9TimeEventC2Ev @ 585
;	TimeEvent::~TimeEvent()
	_ZN9TimeEventD1Ev @ 586
;	TimeEvent::~TimeEvent()
	_ZN9TimeEventD2Ev @ 587
	camera @ 588 DATA
	console @ 589 DATA
	d3ddev @ 590 DATA
	exepath @ 591 DATA
	hwnd @ 592 DATA
	models @ 593 DATA
	options @ 594 DATA
	renderer @ 595 DATA
	scene @ 596 DATA
	textures @ 597 DATA
	ui @ 598 DATA
